	.file	"main.c"
__SP_L__ = 0x3d
__SREG__ = 0x3f
__tmp_reg__ = 0
__zero_reg__ = 1
	.text
.Ltext0:
	.cfi_sections	.debug_frame
.global	__vector_11
	.type	__vector_11, @function
__vector_11:
.LFB0:
	.file 1 "src\\main.c"
	.loc 1 27 0
	.cfi_startproc
	push r1
.LCFI0:
	.cfi_def_cfa_offset 3
	.cfi_offset 1, -2
	push r0
.LCFI1:
	.cfi_def_cfa_offset 4
	.cfi_offset 0, -3
	in r0,__SREG__
	push r0
	clr __zero_reg__
	push r24
.LCFI2:
	.cfi_def_cfa_offset 5
	.cfi_offset 24, -4
	push r25
.LCFI3:
	.cfi_def_cfa_offset 6
	.cfi_offset 25, -5
/* prologue: Signal */
/* frame size = 0 */
/* stack size = 5 */
.L__stack_usage = 5
	.loc 1 28 0
	in r24,0x16
	andi r24,lo8(24)
.LVL0:
	.loc 1 30 0
	lds r25,pin_interrupts
	eor r25,r24
	sts pin_changed,r25
	.loc 1 31 0
	sts pin_interrupts,r24
/* epilogue start */
	.loc 1 32 0
	pop r25
	pop r24
.LVL1:
	pop r0
	out __SREG__,r0
.LVL2:
	pop r0
	pop r1
	reti
	.cfi_endproc
.LFE0:
	.size	__vector_11, .-__vector_11
.global	__vector_7
	.type	__vector_7, @function
__vector_7:
.LFB1:
	.loc 1 34 0
	.cfi_startproc
	push r1
.LCFI4:
	.cfi_def_cfa_offset 3
	.cfi_offset 1, -2
	push r0
.LCFI5:
	.cfi_def_cfa_offset 4
	.cfi_offset 0, -3
	in r0,__SREG__
	push r0
	clr __zero_reg__
	push r24
.LCFI6:
	.cfi_def_cfa_offset 5
	.cfi_offset 24, -4
	push r30
.LCFI7:
	.cfi_def_cfa_offset 6
	.cfi_offset 30, -5
	push r31
.LCFI8:
	.cfi_def_cfa_offset 7
	.cfi_offset 31, -6
/* prologue: Signal */
/* frame size = 0 */
/* stack size = 6 */
.L__stack_usage = 6
	.loc 1 35 0
	lds r24,state
	cpse r24,__zero_reg__
	rjmp .L3
	.loc 1 36 0
	in r24,0xc
	sts state,r24
	.loc 1 37 0
	sts state_position,__zero_reg__
	rjmp .L2
.L3:
	.loc 1 38 0
	lds r24,state
	cpi r24,lo8(65)
	brne .L5
	.loc 1 39 0
	lds r24,state_position
	cpi r24,lo8(64)
	brsh .L2
	.loc 1 40 0
	lds r30,state_position
	ldi r24,lo8(1)
	add r24,r30
	sts state_position,r24
	ldi r31,0
	in r24,0xc
	subi r30,lo8(-(buffer))
	sbci r31,hi8(-(buffer))
	rjmp .L9
.L5:
	.loc 1 42 0
	lds r24,state
	cpi r24,lo8(66)
	breq .L14
	.loc 1 46 0
	lds r24,state
	cpi r24,lo8(67)
	brne .L7
.L14:
	.loc 1 47 0
	lds r24,state_position
	cpi r24,lo8(2)
	brsh .L2
	rjmp .L10
.L7:
	.loc 1 50 0
	lds r24,state
	cpi r24,lo8(70)
	breq .L12
	.loc 1 54 0
	lds r24,state
	cpi r24,lo8(71)
	brne .L2
.L12:
	.loc 1 55 0
	lds r24,state_position
	cpi r24,lo8(4)
	brsh .L2
.L10:
	.loc 1 56 0
	lds r30,state_position
	ldi r24,lo8(1)
	add r24,r30
	sts state_position,r24
	ldi r31,0
	in r24,0xc
	subi r30,lo8(-(state_buffer))
	sbci r31,hi8(-(state_buffer))
.L9:
	st Z,r24
.L2:
/* epilogue start */
	.loc 1 59 0
	pop r31
	pop r30
	pop r24
	pop r0
	out __SREG__,r0
	pop r0
	pop r1
	reti
	.cfi_endproc
.LFE1:
	.size	__vector_7, .-__vector_7
.global	uart_send
	.type	uart_send, @function
uart_send:
.LFB2:
	.loc 1 61 0
	.cfi_startproc
/* prologue: function */
/* frame size = 0 */
/* stack size = 0 */
.L__stack_usage = 0
.LVL3:
.L18:
	.loc 1 62 0 discriminator 1
	sbis 0xb,5
	rjmp .L18
	.loc 1 63 0
	out 0xc,r24
	ret
	.cfi_endproc
.LFE2:
	.size	uart_send, .-uart_send
.global	display_clear
	.type	display_clear, @function
display_clear:
.LFB3:
	.loc 1 66 0
	.cfi_startproc
.LVL4:
/* prologue: function */
/* frame size = 0 */
/* stack size = 0 */
.L__stack_usage = 0
.LBB2:
	.loc 1 67 0
	ldi r18,0
	ldi r19,0
.LVL5:
.L20:
	.loc 1 68 0 discriminator 2
	movw r30,r18
	subi r30,lo8(-(buffer))
	sbci r31,hi8(-(buffer))
	st Z,r24
	.loc 1 67 0 discriminator 2
	subi r18,-1
	sbci r19,-1
.LVL6:
	cpi r18,64
	cpc r19,__zero_reg__
	brne .L20
/* epilogue start */
.LBE2:
	.loc 1 70 0
	ret
	.cfi_endproc
.LFE3:
	.size	display_clear, .-display_clear
.global	display_shift_right
	.type	display_shift_right, @function
display_shift_right:
.LFB4:
	.loc 1 72 0
	.cfi_startproc
/* prologue: function */
/* frame size = 0 */
/* stack size = 0 */
.L__stack_usage = 0
.LVL7:
	.loc 1 72 0
	ldi r24,lo8(4)
	ldi r25,0
.LVL8:
.L26:
	ldi r20,lo8(-4)
	add r20,r24
.LVL9:
.LBB3:
	.loc 1 76 0
	ldi r21,0
.LVL10:
.L23:
	.loc 1 77 0 discriminator 1
	mov r18,r20
	ldi r19,0
	cp r18,r24
	cpc r19,r25
	brge .L27
.LVL11:
.LBB4:
	.loc 1 78 0 discriminator 2
	movw r30,r18
	subi r30,lo8(-(buffer))
	sbci r31,hi8(-(buffer))
	ld r19,Z
.LVL12:
	.loc 1 82 0 discriminator 2
	mov r18,r19
.LVL13:
	lsr r18
.LVL14:
	.loc 1 83 0 discriminator 2
	or r18,r21
.LVL15:
	.loc 1 85 0 discriminator 2
	st Z,r18
.LVL16:
.LBE4:
	.loc 1 77 0 discriminator 2
	subi r20,lo8(-(1))
.LVL17:
.LBB5:
	.loc 1 87 0 discriminator 2
	mov r21,r19
	ror r21
	clr r21
	ror r21
.LVL18:
	rjmp .L23
.LVL19:
.L27:
	adiw r24,4
.LBE5:
.LBE3:
	.loc 1 74 0
	cpi r24,68
	cpc r25,__zero_reg__
	brne .L26
/* epilogue start */
	.loc 1 90 0
	ret
	.cfi_endproc
.LFE4:
	.size	display_shift_right, .-display_shift_right
.global	display_shift_left
	.type	display_shift_left, @function
display_shift_left:
.LFB5:
	.loc 1 92 0
	.cfi_startproc
/* prologue: function */
/* frame size = 0 */
/* stack size = 0 */
.L__stack_usage = 0
.LVL20:
.LBB6:
.LBB7:
	.loc 1 107 0
	ldi r24,0
	ldi r25,0
.LVL21:
.L29:
	.loc 1 107 0 is_stmt 0 discriminator 1
	ldi r18,0
	ldi r19,0
	ldi r23,0
	movw r20,r24
	subi r20,-3
	sbci r21,-1
.LVL22:
.L32:
	movw r30,r20
	sub r30,r18
	sbc r31,r19
	.loc 1 98 0 is_stmt 1 discriminator 2
	subi r30,lo8(-(buffer))
	sbci r31,hi8(-(buffer))
	ld r22,Z
.LVL23:
	.loc 1 100 0 discriminator 2
	mov r26,r22
	rol r26
	clr r26
	rol r26
.LVL24:
	.loc 1 102 0 discriminator 2
	lsl r22
.LVL25:
	.loc 1 103 0 discriminator 2
	or r22,r23
.LVL26:
	.loc 1 105 0 discriminator 2
	st Z,r22
.LVL27:
	subi r18,-1
	sbci r19,-1
.LVL28:
.LBE7:
	.loc 1 97 0 discriminator 2
	cpi r18,4
	cpc r19,__zero_reg__
	breq .L33
.LBB8:
	.loc 1 107 0
	mov r23,r26
	rjmp .L32
.L33:
	adiw r24,4
.LBE8:
.LBE6:
	.loc 1 94 0
	cpi r24,64
	cpc r25,__zero_reg__
	brne .L29
	ret
	.cfi_endproc
.LFE5:
	.size	display_shift_left, .-display_shift_left
.global	display_shift_up
	.type	display_shift_up, @function
display_shift_up:
.LFB6:
	.loc 1 112 0
	.cfi_startproc
/* prologue: function */
/* frame size = 0 */
/* stack size = 0 */
.L__stack_usage = 0
.LVL29:
	.loc 1 112 0
	ldi r24,0
	ldi r25,0
.LVL30:
.L36:
	.loc 1 115 0 discriminator 2
	movw r30,r24
	subi r30,lo8(-(buffer+4))
	sbci r31,hi8(-(buffer+4))
	ld r18,Z
	movw r30,r24
	subi r30,lo8(-(buffer))
	sbci r31,hi8(-(buffer))
	st Z,r18
.LVL31:
	adiw r24,1
.LVL32:
	.loc 1 114 0 discriminator 2
	cpi r24,60
	cpc r25,__zero_reg__
	brne .L36
.LVL33:
	.loc 1 118 0 discriminator 1
	sts buffer+60,__zero_reg__
.LVL34:
	sts buffer+61,__zero_reg__
.LVL35:
	sts buffer+62,__zero_reg__
.LVL36:
	sts buffer+63,__zero_reg__
.LVL37:
	ret
	.cfi_endproc
.LFE6:
	.size	display_shift_up, .-display_shift_up
.global	display_shift_down
	.type	display_shift_down, @function
display_shift_down:
.LFB7:
	.loc 1 122 0
	.cfi_startproc
/* prologue: function */
/* frame size = 0 */
/* stack size = 0 */
.L__stack_usage = 0
.LVL38:
	.loc 1 122 0
	ldi r24,lo8(59)
	ldi r25,0
.LVL39:
.L39:
	.loc 1 125 0 discriminator 2
	movw r30,r24
	subi r30,lo8(-(buffer))
	sbci r31,hi8(-(buffer))
	ld r18,Z
	movw r30,r24
	subi r30,lo8(-(buffer+4))
	sbci r31,hi8(-(buffer+4))
	st Z,r18
.LVL40:
.LVL41:
	sbiw r24,1
	brcc .L39
	.loc 1 128 0 discriminator 1
	sts buffer,__zero_reg__
.LVL42:
	sts buffer+1,__zero_reg__
.LVL43:
	sts buffer+2,__zero_reg__
.LVL44:
	sts buffer+3,__zero_reg__
.LVL45:
	ret
	.cfi_endproc
.LFE7:
	.size	display_shift_down, .-display_shift_down
.global	display_plotting
	.type	display_plotting, @function
display_plotting:
.LFB8:
	.loc 1 132 0
	.cfi_startproc
/* prologue: function */
/* frame size = 0 */
/* stack size = 0 */
.L__stack_usage = 0
	.loc 1 137 0
	sts r.1545,__zero_reg__
	.loc 1 142 0
	ldi r18,lo8(7)
	ldi r19,0
.L41:
	.loc 1 137 0 discriminator 1
	lds r24,r.1545
	cpi r24,lo8(16)
	brlo .+2
	rjmp .L49
	.loc 1 138 0
	sts c.1546,__zero_reg__
.L42:
	.loc 1 138 0 is_stmt 0 discriminator 1
	lds r24,c.1546
	cpi r24,lo8(4)
	brsh .L50
	.loc 1 139 0 is_stmt 1
	sts b.1547,__zero_reg__
.L43:
	.loc 1 139 0 is_stmt 0 discriminator 1
	lds r24,b.1547
	cpi r24,lo8(8)
	brsh .L51
	.loc 1 140 0 is_stmt 1
	cbi 0x18,2
	.loc 1 142 0
	lds r30,r.1545
	ldi r31,0
	lsl r30
	rol r31
	lsl r30
	rol r31
	lds r24,c.1546
	add r30,r24
	adc r31,__zero_reg__
	subi r30,lo8(-(buffer))
	sbci r31,hi8(-(buffer))
	ld r24,Z
	ldi r25,0
	lds r20,b.1547
	movw r22,r18
	sub r22,r20
	sbc r23,__zero_reg__
	mov r0,r22
	rjmp 2f
	1:
	asr r25
	ror r24
	2:
	dec r0
	brpl 1b
	sbrs r24,0
	rjmp .L44
	.loc 1 143 0
	cbi 0x18,0
	rjmp .L45
.L44:
	.loc 1 145 0
	sbi 0x18,0
.L45:
	.loc 1 147 0
	sbi 0x18,2
	.loc 1 139 0
	lds r24,b.1547
	subi r24,lo8(-(1))
	sts b.1547,r24
	rjmp .L43
.L51:
	.loc 1 138 0
	lds r24,c.1546
	subi r24,lo8(-(1))
	sts c.1546,r24
	rjmp .L42
.L50:
	.loc 1 151 0
	sbi 0x12,6
	.loc 1 153 0
	in r25,0x12
	lds r24,r.1545
	andi r24,lo8(15)
	lsl r24
	lsl r24
	andi r25,lo8(-61)
	or r24,r25
	out 0x12,r24
	.loc 1 155 0
	cbi 0x18,1
	.loc 1 156 0
	sbi 0x18,1
	.loc 1 158 0
	cbi 0x12,6
	.loc 1 137 0
	lds r24,r.1545
	subi r24,lo8(-(1))
	sts r.1545,r24
	rjmp .L41
.L49:
/* epilogue start */
	.loc 1 160 0
	ret
	.cfi_endproc
.LFE8:
	.size	display_plotting, .-display_plotting
	.section	.text.startup,"ax",@progbits
.global	main
	.type	main, @function
main:
.LFB9:
	.loc 1 162 0
	.cfi_startproc
/* prologue: function */
/* frame size = 0 */
/* stack size = 0 */
.L__stack_usage = 0
	.loc 1 165 0
	in r24,0x2e
	ori r24,lo8(3)
	out 0x2e,r24
	.loc 1 167 0
	ldi r28,lo8(1)
	out 0x9,r28
	.loc 1 168 0
	out 0x2,__zero_reg__
	.loc 1 169 0
	ldi r24,lo8(-104)
	out 0xa,r24
	.loc 1 171 0
	ldi r24,lo8(126)
	out 0x11,r24
	.loc 1 172 0
	ldi r24,lo8(7)
	out 0x17,r24
	.loc 1 174 0
	in r24,0x18
	ori r24,lo8(24)
	out 0x18,r24
	.loc 1 175 0
	in r24,0x20
	ori r24,lo8(24)
	out 0x20,r24
	.loc 1 176 0
	in r24,0x3b
	ori r24,lo8(32)
	out 0x3b,r24
	.loc 1 179 0
	ldi r24,0
	rcall display_clear
.LVL46:
	.loc 1 180 0
	sts buffer+29,r28
	.loc 1 181 0
	ldi r24,lo8(-128)
	sts buffer+30,r24
	.loc 1 182 0
	sts buffer+33,r28
	.loc 1 183 0
	sts buffer+34,r24
	.loc 1 186 0
/* #APP */
 ;  186 "src\main.c" 1
	sei
 ;  0 "" 2
	.loc 1 203 0
/* #NOAPP */
	ldi r28,lo8(89)
.L53:
	.loc 1 190 0
	lds r24,pin_changed
	tst r24
	breq .L54
	.loc 1 191 0
	ldi r24,lo8(90)
	rcall uart_send
.LVL47:
	.loc 1 192 0
	lds r24,pin_interrupts
	rcall uart_send
.LVL48:
	.loc 1 195 0
	lds r24,pin_changed
	sbrs r24,3
	rjmp .L55
	.loc 1 195 0 is_stmt 0 discriminator 1
	lds r24,pin_interrupts
	sbrs r24,3
	rjmp .L55
	.loc 1 196 0 is_stmt 1
	lds r24,state
	cpi r24,lo8(89)
	brne .L56
	.loc 1 197 0
	ldi r24,0
	rcall display_clear
.LVL49:
	.loc 1 198 0
	sts state,__zero_reg__
	rjmp .L55
.L56:
	.loc 1 200 0
	lds r24,state
	tst r24
	breq .L57
	.loc 1 201 0
	lds r24,state
	rcall uart_send
.LVL50:
.L57:
	.loc 1 203 0
	sts state,r28
	.loc 1 204 0
	ldi r24,lo8(-1)
	rcall display_clear
.LVL51:
.L55:
	.loc 1 208 0
	sts pin_changed,__zero_reg__
.L54:
	.loc 1 212 0
	lds r24,state
	tst r24
	breq .L58
	.loc 1 212 0 is_stmt 0 discriminator 1
	lds r24,state
	cpi r24,lo8(89)
	brne .L59
.L58:
	.loc 1 213 0 is_stmt 1
	rcall display_plotting
.LVL52:
	rjmp .L53
.L59:
	.loc 1 216 0
	lds r24,state
	cpi r24,lo8(65)
	brne .L61
	.loc 1 217 0
	lds r24,state_position
	cpi r24,lo8(64)
	brlo .L53
	.loc 1 218 0
	sts state,__zero_reg__
	.loc 1 219 0
	ldi r24,lo8(65)
	rjmp .L107
.L61:
	.loc 1 223 0
	lds r24,state
	cpi r24,lo8(66)
	breq .+2
	rjmp .L62
	.loc 1 224 0
	lds r24,state_position
	cpi r24,lo8(2)
	brsh .+2
	rjmp .L53
.LBB9:
	.loc 1 225 0
	lds r16,state_buffer
.LVL53:
	.loc 1 226 0
	lds r29,state_buffer+1
.LVL54:
	.loc 1 228 0
	rcall display_shift_right
.LVL55:
	ldi r18,lo8(7)
	ldi r19,0
.LBB10:
.LBB11:
	.loc 1 231 0
	ldi r17,0
.LVL56:
.L65:
	movw r24,r18
	ldi r22,lo8(-4)
	ldi r23,lo8(-1)
	rcall __mulhi3
	.loc 1 230 0
	movw r30,r24
	subi r30,lo8(-(buffer+28))
	sbci r31,hi8(-(buffer+28))
	ld r20,Z
.LVL57:
	.loc 1 231 0
	movw r24,r16
	mov r0,r18
	rjmp 2f
	1:
	asr r25
	ror r24
	2:
	dec r0
	brpl 1b
	sbrc r24,0
	.loc 1 232 0
	ori r20,lo8(-128)
.LVL58:
.L63:
	.loc 1 234 0
	st Z,r20
.LVL59:
.LVL60:
.LBE11:
	subi r18,1
	sbc r19,__zero_reg__
	brcc .L65
	.loc 1 229 0
	ldi r18,lo8(7)
	ldi r19,0
.LVL61:
.LBE10:
.LBB12:
.LBB13:
	.loc 1 238 0
	mov r26,r29
	ldi r27,0
.LVL62:
.L68:
	movw r24,r18
	ldi r22,lo8(-4)
	ldi r23,lo8(-1)
	rcall __mulhi3
	.loc 1 237 0
	movw r30,r24
	subi r30,lo8(-(buffer+60))
	sbci r31,hi8(-(buffer+60))
	ld r20,Z
.LVL63:
	.loc 1 238 0
	movw r24,r26
	mov r0,r18
	rjmp 2f
	1:
	asr r25
	ror r24
	2:
	dec r0
	brpl 1b
	sbrc r24,0
	.loc 1 239 0
	ori r20,lo8(-128)
.LVL64:
.L66:
	.loc 1 241 0
	st Z,r20
.LVL65:
.LVL66:
.LBE13:
	subi r18,1
	sbc r19,__zero_reg__
	brcc .L68
.LBE12:
	.loc 1 243 0
	sts state,__zero_reg__
	.loc 1 244 0
	ldi r24,lo8(66)
	rjmp .L107
.LVL67:
.L62:
.LBE9:
	.loc 1 248 0
	lds r24,state
	cpi r24,lo8(67)
	breq .+2
	rjmp .L69
	.loc 1 249 0
	lds r24,state_position
	cpi r24,lo8(2)
	brsh .+2
	rjmp .L53
.LBB14:
	.loc 1 250 0
	lds r16,state_buffer
.LVL68:
	.loc 1 251 0
	lds r29,state_buffer+1
.LVL69:
	.loc 1 253 0
	rcall display_shift_left
.LVL70:
	ldi r18,lo8(7)
	ldi r19,0
.LBB15:
.LBB16:
	.loc 1 256 0
	ldi r17,0
.LVL71:
.L72:
	movw r24,r18
	ldi r22,lo8(-4)
	ldi r23,lo8(-1)
	rcall __mulhi3
	.loc 1 255 0
	movw r30,r24
	subi r30,lo8(-(buffer+31))
	sbci r31,hi8(-(buffer+31))
	ld r20,Z
.LVL72:
	.loc 1 256 0
	movw r24,r16
	mov r0,r18
	rjmp 2f
	1:
	asr r25
	ror r24
	2:
	dec r0
	brpl 1b
	sbrc r24,0
	.loc 1 257 0
	ori r20,lo8(1)
.LVL73:
.L70:
	.loc 1 259 0
	st Z,r20
.LVL74:
.LVL75:
.LBE16:
	subi r18,1
	sbc r19,__zero_reg__
	brcc .L72
	.loc 1 254 0
	ldi r18,lo8(7)
	ldi r19,0
.LVL76:
.LBE15:
.LBB17:
.LBB18:
	.loc 1 263 0
	mov r26,r29
	ldi r27,0
.LVL77:
.L75:
	movw r24,r18
	ldi r22,lo8(-4)
	ldi r23,lo8(-1)
	rcall __mulhi3
	.loc 1 262 0
	movw r30,r24
	subi r30,lo8(-(buffer+63))
	sbci r31,hi8(-(buffer+63))
	ld r20,Z
.LVL78:
	.loc 1 263 0
	movw r24,r26
	mov r0,r18
	rjmp 2f
	1:
	asr r25
	ror r24
	2:
	dec r0
	brpl 1b
	sbrc r24,0
	.loc 1 264 0
	ori r20,lo8(1)
.LVL79:
.L73:
	.loc 1 266 0
	st Z,r20
.LVL80:
.LVL81:
.LBE18:
	subi r18,1
	sbc r19,__zero_reg__
	brcc .L75
.LBE17:
	.loc 1 268 0
	sts state,__zero_reg__
	.loc 1 269 0
	ldi r24,lo8(67)
	rjmp .L107
.LVL82:
.L69:
.LBE14:
	.loc 1 273 0
	lds r24,state
	cpi r24,lo8(68)
	brne .L76
	.loc 1 274 0
	ldi r24,0
	rcall display_clear
.LVL83:
	.loc 1 275 0
	sts state,__zero_reg__
	.loc 1 276 0
	ldi r24,lo8(68)
	rjmp .L107
.L76:
	.loc 1 279 0
	lds r24,state
	cpi r24,lo8(69)
	brne .L77
	.loc 1 280 0
	ldi r24,lo8(-1)
	rcall display_clear
.LVL84:
	.loc 1 281 0
	sts state,__zero_reg__
	.loc 1 282 0
	ldi r24,lo8(69)
	rjmp .L107
.L77:
	.loc 1 285 0
	lds r24,state
	cpi r24,lo8(70)
	brne .L78
	.loc 1 286 0
	lds r24,state_position
	cpi r24,lo8(4)
	brsh .+2
	rjmp .L53
	.loc 1 287 0
	rcall display_shift_down
.LVL85:
	.loc 1 288 0
	lds r24,state_buffer
	sts buffer,r24
	.loc 1 289 0
	lds r24,state_buffer+1
	sts buffer+1,r24
	.loc 1 290 0
	lds r24,state_buffer+2
	sts buffer+2,r24
	.loc 1 291 0
	lds r24,state_buffer+3
	sts buffer+3,r24
	.loc 1 293 0
	sts state,__zero_reg__
	.loc 1 294 0
	ldi r24,lo8(70)
	rjmp .L107
.L78:
	.loc 1 298 0
	lds r24,state
	cpi r24,lo8(71)
	brne .L79
	.loc 1 299 0
	lds r24,state_position
	cpi r24,lo8(4)
	brsh .+2
	rjmp .L53
	.loc 1 300 0
	rcall display_shift_up
.LVL86:
	.loc 1 301 0
	lds r24,state_buffer
	sts buffer+60,r24
	.loc 1 302 0
	lds r24,state_buffer+1
	sts buffer+61,r24
	.loc 1 303 0
	lds r24,state_buffer+2
	sts buffer+62,r24
	.loc 1 304 0
	lds r24,state_buffer+3
	sts buffer+63,r24
	.loc 1 306 0
	sts state,__zero_reg__
	.loc 1 307 0
	ldi r24,lo8(71)
	rjmp .L107
.L79:
.LBB19:
	.loc 1 312 0
	lds r24,state
.LVL87:
	.loc 1 313 0
	sts state,__zero_reg__
.LVL88:
.L107:
	.loc 1 314 0
	rcall uart_send
.LVL89:
	rjmp .L53
.LBE19:
	.cfi_endproc
.LFE9:
	.size	main, .-main
	.local	b.1547
	.comm	b.1547,1,1
	.local	c.1546
	.comm	c.1546,1,1
	.local	r.1545
	.comm	r.1545,1,1
.global	pin_changed
	.section .bss
	.type	pin_changed, @object
	.size	pin_changed, 1
pin_changed:
	.zero	1
.global	pin_interrupts
	.data
	.type	pin_interrupts, @object
	.size	pin_interrupts, 1
pin_interrupts:
	.byte	-1
	.comm	state_buffer,4,1
.global	state_position
	.section .bss
	.type	state_position, @object
	.size	state_position, 1
state_position:
	.zero	1
.global	state
	.type	state, @object
	.size	state, 1
state:
	.zero	1
	.comm	buffer,64,1
	.text
.Letext0:
	.file 2 "c:\\tools\\arduino-nightly\\hardware\\tools\\avr\\avr\\include\\stdint.h"